target datalayout = "e-m:e-p270:32:32-p271:32:32-p272:64:64-i64:64-i128:128-f80:128-n8:16:32:64-S128"
target triple = "x86_64-pc-linux-gnu"

%struct.darktable_t = type { %struct.dt_codepath_t, i32, i32, ptr, ptr, ptr, ptr, ptr, ptr, ptr, ptr, ptr, ptr, ptr, ptr, ptr, ptr, ptr, ptr, ptr, ptr, ptr, ptr, ptr, ptr, ptr, ptr, ptr, ptr, ptr, [64 x %struct.dt_pthread_mutex_t], %struct.dt_pthread_mutex_t, %struct.dt_pthread_mutex_t, %struct.dt_pthread_mutex_t, %struct.dt_pthread_mutex_t, %struct.dt_pthread_mutex_t, ptr, ptr, ptr, ptr, ptr, ptr, ptr, ptr, ptr, ptr, ptr, ptr, ptr, %struct.dt_lua_state_t, ptr, double, ptr, i32, [47 x i32], i32, i32, ptr, ptr, %struct.dt_sys_resources_t, %struct.dt_backthumb_t, %struct.dt_gimp_t }
%struct.dt_codepath_t = type { i8, [3 x i8] }
%struct.dt_pthread_mutex_t = type { %union.pthread_mutex_t }
%union.pthread_mutex_t = type { %struct.__pthread_mutex_s }
%struct.__pthread_mutex_s = type { i32, i32, i32, i32, i32, i16, i16, %struct.__pthread_internal_list }
%struct.__pthread_internal_list = type { ptr, ptr }
%struct.dt_lua_state_t = type { i32 }
%struct.dt_sys_resources_t = type { i64, i64, ptr, ptr, i32 }
%struct.dt_backthumb_t = type { double, double, i32, i32, i32, i32 }
%struct.dt_gimp_t = type { i32, ptr, ptr, i32, i32 }

@darktable = external global %struct.darktable_t, align 8
@.str = private unnamed_addr constant [41 x i8] c"[sql] %s:%d, function %s(): prepare \22%s\22\00", align 1
@.str.1 = private unnamed_addr constant [115 x i8] c"generated/home/dtcxzyw/WorkSpace/Projects/compilers/llvm-opt-benchmark/bench/darktable/darktable/src/common/tags.c\00", align 1
@.str.2 = private unnamed_addr constant [41 x i8] c"SELECT id FROM data.tags WHERE name = ?1\00", align 1
@stderr = external global ptr, align 8
@.str.3 = private unnamed_addr constant [53 x i8] c"sqlite3 error: %s:%d, function %s(), query \22%s\22: %s\0A\00", align 1
@.str.4 = private unnamed_addr constant [41 x i8] c"sqlite3 error: %s:%d, function %s(): %s\0A\00", align 1
@__FUNCTION__.dt_tag_exists = private unnamed_addr constant [14 x i8] c"dt_tag_exists\00", align 1

; Function Attrs: nounwind uwtable
define i32 @dt_tag_exists(ptr noundef %0, ptr noundef %1) #0 {
  %3 = alloca i32, align 4
  %4 = alloca ptr, align 8
  %5 = alloca ptr, align 8
  %6 = alloca i32, align 4
  %7 = alloca ptr, align 8
  %8 = alloca i32, align 4
  %9 = alloca i32, align 4
  %10 = alloca i32, align 4
  store ptr %0, ptr %4, align 8, !tbaa !6
  store ptr %1, ptr %5, align 8, !tbaa !11
  call void @llvm.lifetime.start.p0(i64 4, ptr %6) #8
  call void @llvm.lifetime.start.p0(i64 8, ptr %7) #8
  br label %11

11:                                               ; preds = %2
  br label %12

12:                                               ; preds = %11
  %13 = load i32, ptr getelementptr inbounds nuw (%struct.darktable_t, ptr @darktable, i32 0, i32 2), align 8, !tbaa !14
  %14 = and i32 256, %13
  %15 = icmp ne i32 %14, 0
  br i1 %15, label %16, label %22

16:                                               ; preds = %12
  %17 = load i32, ptr getelementptr inbounds nuw (%struct.darktable_t, ptr @darktable, i32 0, i32 2), align 8, !tbaa !14
  %18 = xor i32 %17, -1
  %19 = and i32 0, %18
  %20 = icmp ne i32 %19, 0
  br i1 %20, label %22, label %21

21:                                               ; preds = %16
  call void (ptr, ...) @dt_print_ext(ptr noundef @.str, ptr noundef @.str.1, i32 noundef 361, ptr noundef @__FUNCTION__.dt_tag_exists, ptr noundef @.str.2)
  br label %22

22:                                               ; preds = %21, %16, %12
  br label %23

23:                                               ; preds = %22
  br label %24

24:                                               ; preds = %23
  call void @llvm.lifetime.start.p0(i64 4, ptr %8) #8
  %25 = load ptr, ptr getelementptr inbounds nuw (%struct.darktable_t, ptr @darktable, i32 0, i32 18), align 8, !tbaa !51
  %26 = call ptr @dt_database_get(ptr noundef %25)
  %27 = call i32 @sqlite3_prepare_v2(ptr noundef %26, ptr noundef @.str.2, i32 noundef -1, ptr noundef %7, ptr noundef null)
  store i32 %27, ptr %8, align 4, !tbaa !52
  %28 = load i32, ptr %8, align 4, !tbaa !52
  %29 = icmp ne i32 %28, 0
  br i1 %29, label %30, label %36

30:                                               ; preds = %24
  %31 = load ptr, ptr @stderr, align 8, !tbaa !53
  %32 = load ptr, ptr getelementptr inbounds nuw (%struct.darktable_t, ptr @darktable, i32 0, i32 18), align 8, !tbaa !51
  %33 = call ptr @dt_database_get(ptr noundef %32)
  %34 = call ptr @sqlite3_errmsg(ptr noundef %33)
  %35 = call i32 (ptr, ptr, ...) @fprintf(ptr noundef %31, ptr noundef @.str.3, ptr noundef @.str.1, i32 noundef 361, ptr noundef @__FUNCTION__.dt_tag_exists, ptr noundef @.str.2, ptr noundef %34) #8
  br label %36

36:                                               ; preds = %30, %24
  call void @llvm.lifetime.end.p0(i64 4, ptr %8) #8
  br label %37

37:                                               ; preds = %36
  br label %38

38:                                               ; preds = %37
  call void @llvm.lifetime.start.p0(i64 4, ptr %9) #8
  %39 = load ptr, ptr %7, align 8, !tbaa !55
  %40 = load ptr, ptr %4, align 8, !tbaa !6
  %41 = call i32 @sqlite3_bind_text(ptr noundef %39, i32 noundef 1, ptr noundef %40, i32 noundef -1, ptr noundef inttoptr (i64 -1 to ptr))
  store i32 %41, ptr %9, align 4, !tbaa !52
  %42 = load i32, ptr %9, align 4, !tbaa !52
  %43 = icmp ne i32 %42, 0
  br i1 %43, label %44, label %50

44:                                               ; preds = %38
  %45 = load ptr, ptr @stderr, align 8, !tbaa !53
  %46 = load ptr, ptr getelementptr inbounds nuw (%struct.darktable_t, ptr @darktable, i32 0, i32 18), align 8, !tbaa !51
  %47 = call ptr @dt_database_get(ptr noundef %46)
  %48 = call ptr @sqlite3_errmsg(ptr noundef %47)
  %49 = call i32 (ptr, ptr, ...) @fprintf(ptr noundef %45, ptr noundef @.str.4, ptr noundef @.str.1, i32 noundef 362, ptr noundef @__FUNCTION__.dt_tag_exists, ptr noundef %48) #8
  br label %50

50:                                               ; preds = %44, %38
  call void @llvm.lifetime.end.p0(i64 4, ptr %9) #8
  %51 = load ptr, ptr %7, align 8, !tbaa !55
  %52 = call i32 @sqlite3_step(ptr noundef %51)
  store i32 %52, ptr %6, align 4, !tbaa !52
  %53 = load i32, ptr %6, align 4, !tbaa !52
  %54 = icmp eq i32 %53, 100
  br i1 %54, label %55, label %66

55:                                               ; preds = %50
  %56 = load ptr, ptr %5, align 8, !tbaa !11
  %57 = icmp ne ptr %56, null
  br i1 %57, label %58, label %63

58:                                               ; preds = %55
  %59 = load ptr, ptr %7, align 8, !tbaa !55
  %60 = call i64 @sqlite3_column_int64(ptr noundef %59, i32 noundef 0)
  %61 = trunc i64 %60 to i32
  %62 = load ptr, ptr %5, align 8, !tbaa !11
  store i32 %61, ptr %62, align 4, !tbaa !52
  br label %63

63:                                               ; preds = %58, %55
  %64 = load ptr, ptr %7, align 8, !tbaa !55
  %65 = call i32 @sqlite3_finalize(ptr noundef %64)
  store i32 1, ptr %3, align 4
  store i32 1, ptr %10, align 4
  br label %74

66:                                               ; preds = %50
  %67 = load ptr, ptr %5, align 8, !tbaa !11
  %68 = icmp ne ptr %67, null
  br i1 %68, label %69, label %71

69:                                               ; preds = %66
  %70 = load ptr, ptr %5, align 8, !tbaa !11
  store i32 -1, ptr %70, align 4, !tbaa !52
  br label %71

71:                                               ; preds = %69, %66
  %72 = load ptr, ptr %7, align 8, !tbaa !55
  %73 = call i32 @sqlite3_finalize(ptr noundef %72)
  store i32 0, ptr %3, align 4
  store i32 1, ptr %10, align 4
  br label %74

74:                                               ; preds = %71, %63
  call void @llvm.lifetime.end.p0(i64 8, ptr %7) #8
  call void @llvm.lifetime.end.p0(i64 4, ptr %6) #8
  %75 = load i32, ptr %3, align 4
  ret i32 %75
}