; Function Attrs: nounwind uwtable
define range(i32 0, 2) i32 @dt_tag_exists(ptr noundef %0, ptr noundef writeonly %1) local_unnamed_addr #0 {
  %3 = alloca ptr, align 8
  call void @llvm.lifetime.start.p0(i64 8, ptr nonnull %3) #11
  %4 = load i32, ptr getelementptr inbounds nuw (i8, ptr @darktable, i64 8), align 8, !tbaa !9
  %5 = and i32 %4, 256
  %.not = icmp eq i32 %5, 0
  br i1 %.not, label %7, label %6

6:                                                ; preds = %2
  tail call void (ptr, ...) @dt_print_ext(ptr noundef nonnull @.str, ptr noundef nonnull @.str.1, i32 noundef 361, ptr noundef nonnull @__FUNCTION__.dt_tag_exists, ptr noundef nonnull @.str.2) #11
  br label %7

7:                                                ; preds = %6, %2
  %8 = load ptr, ptr getelementptr inbounds nuw (i8, ptr @darktable, i64 136), align 8, !tbaa !49
  %9 = tail call ptr @dt_database_get(ptr noundef %8) #11
  %10 = call i32 @sqlite3_prepare_v2(ptr noundef %9, ptr noundef nonnull @.str.2, i32 noundef -1, ptr noundef nonnull %3, ptr noundef null) #11
  %.not9 = icmp eq i32 %10, 0
  br i1 %.not9, label %17, label %11

11:                                               ; preds = %7
  %12 = load ptr, ptr @stderr, align 8, !tbaa !50
  %13 = load ptr, ptr getelementptr inbounds nuw (i8, ptr @darktable, i64 136), align 8, !tbaa !49
  %14 = call ptr @dt_database_get(ptr noundef %13) #11
  %15 = call ptr @sqlite3_errmsg(ptr noundef %14) #11
  %16 = call i32 (ptr, ptr, ...) @fprintf(ptr noundef %12, ptr noundef nonnull @.str.3, ptr noundef nonnull @.str.1, i32 noundef 361, ptr noundef nonnull @__FUNCTION__.dt_tag_exists, ptr noundef nonnull @.str.2, ptr noundef %15) #12
  br label %17

17:                                               ; preds = %11, %7
  %18 = load ptr, ptr %3, align 8, !tbaa !52
  %19 = call i32 @sqlite3_bind_text(ptr noundef %18, i32 noundef 1, ptr noundef %0, i32 noundef -1, ptr noundef nonnull inttoptr (i64 -1 to ptr)) #11
  %.not10 = icmp eq i32 %19, 0
  br i1 %.not10, label %26, label %20

20:                                               ; preds = %17
  %21 = load ptr, ptr @stderr, align 8, !tbaa !50
  %22 = load ptr, ptr getelementptr inbounds nuw (i8, ptr @darktable, i64 136), align 8, !tbaa !49
  %23 = call ptr @dt_database_get(ptr noundef %22) #11
  %24 = call ptr @sqlite3_errmsg(ptr noundef %23) #11
  %25 = call i32 (ptr, ptr, ...) @fprintf(ptr noundef %21, ptr noundef nonnull @.str.4, ptr noundef nonnull @.str.1, i32 noundef 362, ptr noundef nonnull @__FUNCTION__.dt_tag_exists, ptr noundef %24) #12
  br label %26

26:                                               ; preds = %20, %17
  %27 = load ptr, ptr %3, align 8, !tbaa !52
  %28 = call i32 @sqlite3_step(ptr noundef %27) #11
  %29 = icmp eq i32 %28, 100
  %.not12 = icmp eq ptr %1, null
  br i1 %29, label %30, label %35

30:                                               ; preds = %26
  br i1 %.not12, label %36, label %31

31:                                               ; preds = %30
  %32 = load ptr, ptr %3, align 8, !tbaa !52
  %33 = call i64 @sqlite3_column_int64(ptr noundef %32, i32 noundef 0) #11
  %34 = trunc i64 %33 to i32
  br label %.sink.split

35:                                               ; preds = %26
  br i1 %.not12, label %36, label %.sink.split

.sink.split:                                      ; preds = %35, %31
  %.sink = phi i32 [ %34, %31 ], [ -1, %35 ]
  %.0.ph = phi i32 [ 1, %31 ], [ 0, %35 ]
  store i32 %.sink, ptr %1, align 4, !tbaa !54
  br label %36

36:                                               ; preds = %.sink.split, %35, %30
  %.0 = phi i32 [ 1, %30 ], [ 0, %35 ], [ %.0.ph, %.sink.split ]
  %37 = load ptr, ptr %3, align 8, !tbaa !52
  %38 = call i32 @sqlite3_finalize(ptr noundef %37) #11
  call void @llvm.lifetime.end.p0(i64 8, ptr nonnull %3) #11
  ret i32 %.0
}